; Function Attrs: mustprogress nounwind uwtable
define internal fastcc void @"_ZN5boost4asio6detail17executor_function4implINS1_7binder1IZZ4mainENK3$_0clEvEUlRKNS_6system10error_codeEE_S7_EESaIvEE3ptrD2Ev"(ptr noundef nonnull align 8 captures(none) dereferenceable(24) %0) unnamed_addr #11 align 2 personality ptr @__gxx_personality_v0 {
  %2 = getelementptr inbounds nuw i8, ptr %0, i64 16
  %3 = load ptr, ptr %2, align 8, !tbaa !958
  %.not.i = icmp eq ptr %3, null
  br i1 %.not.i, label %5, label %4

4:                                                ; preds = %1
  store ptr null, ptr %2, align 8, !tbaa !958
  br label %5

5:                                                ; preds = %4, %1
  %6 = getelementptr inbounds nuw i8, ptr %0, i64 8
  %7 = load ptr, ptr %6, align 8, !tbaa !961
  %.not1.i = icmp eq ptr %7, null
  br i1 %.not1.i, label %"_ZN5boost4asio6detail17executor_function4implINS1_7binder1IZZ4mainENK3$_0clEvEUlRKNS_6system10error_codeEE_S7_EESaIvEE3ptr5resetEv.exit", label %8

8:                                                ; preds = %5
  %9 = tail call align 8 ptr @llvm.threadlocal.address.p0(ptr align 8 @_ZN5boost4asio6detail15keyword_tss_ptrINS1_10call_stackINS1_14thread_contextENS1_16thread_info_baseEE7contextEE6value_E)
  %10 = load ptr, ptr %9, align 8, !tbaa !332
  %.not.i.i.i = icmp eq ptr %10, null
  br i1 %.not.i.i.i, label %_ZN5boost4asio6detail10call_stackINS1_14thread_contextENS1_16thread_info_baseEE3topEv.exit.thread.i.i, label %_ZN5boost4asio6detail10call_stackINS1_14thread_contextENS1_16thread_info_baseEE3topEv.exit.i.i

_ZN5boost4asio6detail10call_stackINS1_14thread_contextENS1_16thread_info_baseEE3topEv.exit.i.i: ; preds = %8
  %11 = getelementptr inbounds nuw i8, ptr %10, i64 8
  %12 = load ptr, ptr %11, align 8, !tbaa !331
  %.not.i.i = icmp eq ptr %12, null
  br i1 %.not.i.i, label %_ZN5boost4asio6detail10call_stackINS1_14thread_contextENS1_16thread_info_baseEE3topEv.exit.thread.i.i, label %13

13:                                               ; preds = %_ZN5boost4asio6detail10call_stackINS1_14thread_contextENS1_16thread_info_baseEE3topEv.exit.i.i
  %14 = getelementptr inbounds nuw i8, ptr %12, i64 16
  %15 = load ptr, ptr %14, align 8, !tbaa !117
  %16 = icmp eq ptr %15, null
  br i1 %16, label %17, label %_ZN5boost4asio6detail10call_stackINS1_14thread_contextENS1_16thread_info_baseEE3topEv.exit.thread.i.i

17:                                               ; preds = %13
  %18 = getelementptr inbounds nuw i8, ptr %7, i64 96
  %19 = load i8, ptr %18, align 1, !tbaa !19
  store i8 %19, ptr %7, align 1, !tbaa !19
  store ptr %7, ptr %14, align 8, !tbaa !117
  br label %"_ZN5boost4asio6detail19recycling_allocatorINS1_17executor_function4implINS1_7binder1IZZ4mainENK3$_0clEvEUlRKNS_6system10error_codeEE_S8_EESaIvEEENS1_16thread_info_base21executor_function_tagEE10deallocateEPSE_m.exit.i"

_ZN5boost4asio6detail10call_stackINS1_14thread_contextENS1_16thread_info_baseEE3topEv.exit.thread.i.i: ; preds = %13, %_ZN5boost4asio6detail10call_stackINS1_14thread_contextENS1_16thread_info_baseEE3topEv.exit.i.i, %8
  tail call void @_ZdlPv(ptr noundef nonnull %7) #37
  br label %"_ZN5boost4asio6detail19recycling_allocatorINS1_17executor_function4implINS1_7binder1IZZ4mainENK3$_0clEvEUlRKNS_6system10error_codeEE_S8_EESaIvEEENS1_16thread_info_base21executor_function_tagEE10deallocateEPSE_m.exit.i"

"_ZN5boost4asio6detail19recycling_allocatorINS1_17executor_function4implINS1_7binder1IZZ4mainENK3$_0clEvEUlRKNS_6system10error_codeEE_S8_EESaIvEEENS1_16thread_info_base21executor_function_tagEE10deallocateEPSE_m.exit.i": ; preds = %_ZN5boost4asio6detail10call_stackINS1_14thread_contextENS1_16thread_info_baseEE3topEv.exit.thread.i.i, %17
  store ptr null, ptr %6, align 8, !tbaa !961
  br label %"_ZN5boost4asio6detail17executor_function4implINS1_7binder1IZZ4mainENK3$_0clEvEUlRKNS_6system10error_codeEE_S7_EESaIvEE3ptr5resetEv.exit"

"_ZN5boost4asio6detail17executor_function4implINS1_7binder1IZZ4mainENK3$_0clEvEUlRKNS_6system10error_codeEE_S7_EESaIvEE3ptr5resetEv.exit": ; preds = %"_ZN5boost4asio6detail19recycling_allocatorINS1_17executor_function4implINS1_7binder1IZZ4mainENK3$_0clEvEUlRKNS_6system10error_codeEE_S8_EESaIvEEENS1_16thread_info_base21executor_function_tagEE10deallocateEPSE_m.exit.i", %5
  ret void
}